; ModuleID = '53/127.c'
source_filename = "53/127.c"
target datalayout = "e-m:e-p270:32:32-p271:32:32-p272:64:64-i64:64-f80:128-n8:16:32:64-S128"
target triple = "x86_64-pc-linux-gnu"

@.str = private unnamed_addr constant [2 x i8] c",\00", align 1
@.str.1 = private unnamed_addr constant [3 x i8] c"%d\00", align 1

; Function Attrs: noinline nounwind uwtable
define dso_local void @fun(i32* %0, i32 %1) #0 {
  %3 = alloca i32*, align 8
  %4 = alloca i32, align 4
  %5 = alloca i32, align 4
  %6 = alloca i32, align 4
  %7 = alloca [400 x i32], align 16
  %8 = alloca i32*, align 8
  store i32* %0, i32** %3, align 8
  store i32 %1, i32* %4, align 4
  %9 = getelementptr inbounds [400 x i32], [400 x i32]* %7, i64 0, i64 0
  store i32* %9, i32** %8, align 8
  store i32 0, i32* %5, align 4
  br label %10

10:                                               ; preds = %53, %2
  %11 = load i32, i32* %5, align 4
  %12 = load i32, i32* %4, align 4
  %13 = icmp slt i32 %11, %12
  br i1 %13, label %14, label %56

14:                                               ; preds = %10
  store i32 0, i32* %6, align 4
  br label %15

15:                                               ; preds = %33, %14
  %16 = load i32, i32* %6, align 4
  %17 = load i32, i32* %5, align 4
  %18 = icmp slt i32 %16, %17
  br i1 %18, label %19, label %36

19:                                               ; preds = %15
  %20 = load i32*, i32** %3, align 8
  %21 = load i32, i32* %5, align 4
  %22 = sext i32 %21 to i64
  %23 = getelementptr inbounds i32, i32* %20, i64 %22
  %24 = load i32, i32* %23, align 4
  %25 = load i32*, i32** %3, align 8
  %26 = load i32, i32* %6, align 4
  %27 = sext i32 %26 to i64
  %28 = getelementptr inbounds i32, i32* %25, i64 %27
  %29 = load i32, i32* %28, align 4
  %30 = icmp eq i32 %24, %29
  br i1 %30, label %31, label %32

31:                                               ; preds = %19
  br label %36

32:                                               ; preds = %19
  br label %33

33:                                               ; preds = %32
  %34 = load i32, i32* %6, align 4
  %35 = add nsw i32 %34, 1
  store i32 %35, i32* %6, align 4
  br label %15

36:                                               ; preds = %31, %15
  %37 = load i32, i32* %6, align 4
  %38 = load i32, i32* %5, align 4
  %39 = icmp eq i32 %37, %38
  br i1 %39, label %40, label %52

40:                                               ; preds = %36
  %41 = load i32*, i32** %3, align 8
  %42 = load i32, i32* %5, align 4
  %43 = sext i32 %42 to i64
  %44 = getelementptr inbounds i32, i32* %41, i64 %43
  %45 = load i32, i32* %44, align 4
  %46 = load i32*, i32** %8, align 8
  store i32 %45, i32* %46, align 4
  %47 = load i32*, i32** %8, align 8
  %48 = getelementptr inbounds i32, i32* %47, i32 1
  store i32* %48, i32** %8, align 8
  %49 = load i32*, i32** %8, align 8
  store i32 -1000, i32* %49, align 4
  %50 = load i32*, i32** %8, align 8
  %51 = getelementptr inbounds i32, i32* %50, i32 1
  store i32* %51, i32** %8, align 8
  br label %52

52:                                               ; preds = %40, %36
  br label %53

53:                                               ; preds = %52
  %54 = load i32, i32* %5, align 4
  %55 = add nsw i32 %54, 1
  store i32 %55, i32* %5, align 4
  br label %10

56:                                               ; preds = %10
  %57 = load i32*, i32** %8, align 8
  %58 = getelementptr inbounds i32, i32* %57, i64 -1
  store i32 0, i32* %58, align 4
  %59 = getelementptr inbounds [400 x i32], [400 x i32]* %7, i64 0, i64 0
  store i32* %59, i32** %8, align 8
  br label %60

60:                                               ; preds = %75, %56
  %61 = load i32*, i32** %8, align 8
  %62 = load i32, i32* %61, align 4
  %63 = icmp ne i32 %62, 0
  br i1 %63, label %64, label %78

64:                                               ; preds = %60
  %65 = load i32*, i32** %8, align 8
  %66 = load i32, i32* %65, align 4
  %67 = icmp eq i32 %66, -1000
  br i1 %67, label %68, label %70

68:                                               ; preds = %64
  %69 = call i32 (i8*, ...) @printf(i8* getelementptr inbounds ([2 x i8], [2 x i8]* @.str, i64 0, i64 0))
  br label %74

70:                                               ; preds = %64
  %71 = load i32*, i32** %8, align 8
  %72 = load i32, i32* %71, align 4
  %73 = call i32 (i8*, ...) @printf(i8* getelementptr inbounds ([3 x i8], [3 x i8]* @.str.1, i64 0, i64 0), i32 %72)
  br label %74

74:                                               ; preds = %70, %68
  br label %75

75:                                               ; preds = %74
  %76 = load i32*, i32** %8, align 8
  %77 = getelementptr inbounds i32, i32* %76, i32 1
  store i32* %77, i32** %8, align 8
  br label %60

78:                                               ; preds = %60
  ret void
}

declare dso_local i32 @printf(i8*, ...) #1

; Function Attrs: noinline nounwind uwtable
define dso_local i32 @main() #0 {
  %1 = alloca i32, align 4
  %2 = alloca [300 x i32], align 16
  %3 = alloca i32*, align 8
  %4 = alloca i32, align 4
  %5 = alloca i32, align 4
  store i32 0, i32* %1, align 4
  %6 = getelementptr inbounds [300 x i32], [300 x i32]* %2, i64 0, i64 0
  store i32* %6, i32** %3, align 8
  %7 = call i32 (i8*, ...) @__isoc99_scanf(i8* getelementptr inbounds ([3 x i8], [3 x i8]* @.str.1, i64 0, i64 0), i32* %4)
  store i32 0, i32* %5, align 4
  br label %8

8:                                                ; preds = %18, %0
  %9 = load i32, i32* %5, align 4
  %10 = load i32, i32* %4, align 4
  %11 = icmp slt i32 %9, %10
  br i1 %11, label %12, label %21

12:                                               ; preds = %8
  %13 = load i32*, i32** %3, align 8
  %14 = load i32, i32* %5, align 4
  %15 = sext i32 %14 to i64
  %16 = getelementptr inbounds i32, i32* %13, i64 %15
  %17 = call i32 (i8*, ...) @__isoc99_scanf(i8* getelementptr inbounds ([3 x i8], [3 x i8]* @.str.1, i64 0, i64 0), i32* %16)
  br label %18

18:                                               ; preds = %12
  %19 = load i32, i32* %5, align 4
  %20 = add nsw i32 %19, 1
  store i32 %20, i32* %5, align 4
  br label %8

21:                                               ; preds = %8
  %22 = load i32*, i32** %3, align 8
  %23 = load i32, i32* %4, align 4
  call void @fun(i32* %22, i32 %23)
  %24 = load i32, i32* %1, align 4
  ret i32 %24
}

declare dso_local i32 @__isoc99_scanf(i8*, ...) #1


!llvm.module.flags = !{!0}
!llvm.ident = !{!1}

!0 = !{i32 1, !"wchar_size", i32 4}
!1 = !{!"clang version 10.0.0-4ubuntu1 "}
